; Function Attrs: nounwind sspstrong uwtable
define internal void @idebus_unrealize(ptr noundef %bus) #0 {
entry:
  %call.i = tail call ptr @object_dynamic_cast_assert(ptr noundef %bus, ptr noundef nonnull @.str, ptr noundef nonnull @.str.8, i32 noundef 25, ptr noundef nonnull @__func__.IDE_BUS) #6
  %vmstate = getelementptr inbounds nuw i8, ptr %call.i, i64 2296
  %0 = load ptr, ptr %vmstate, align 8
  %tobool.not = icmp eq ptr %0, null
  br i1 %tobool.not, label %if.end, label %if.then

if.then:                                          ; preds = %entry
  tail call void @qemu_del_vm_change_state_handler(ptr noundef nonnull %0) #6
  br label %if.end

if.end:                                           ; preds = %if.then, %entry
  ret void
}